target datalayout = "e-m:e-p270:32:32-p271:32:32-p272:64:64-i64:64-i128:128-f80:128-n8:16:32:64-S128"
target triple = "x86_64-pc-linux-gnu"

%struct.AVFilterContext = type { ptr, ptr, ptr, ptr, ptr, i32, ptr, ptr, i32, ptr, ptr, i32, i32, ptr, ptr, ptr, ptr, i32, ptr, i32, i32 }
%struct.SetParamsContext = type { ptr, i32, i32, i32, i32, i32, i32 }
%struct.AVFilterFormatsConfig = type { ptr, ptr, ptr, ptr, ptr }
%struct.AVFilterLink = type { ptr, ptr, ptr, ptr, i32, i32, i32, i32, %struct.AVRational, i32, i32, i32, %struct.AVChannelLayout, %struct.AVRational, ptr, i32, %struct.AVFilterFormatsConfig, %struct.AVFilterFormatsConfig }
%struct.AVChannelLayout = type { i32, i32, %union.anon.1, ptr }
%union.anon.1 = type { i64 }
%struct.AVRational = type { i32, i32 }
%struct.AVFrame = type { [8 x ptr], [8 x i32], ptr, i32, i32, i32, i32, i32, %struct.AVRational, i64, i64, %struct.AVRational, i32, ptr, i32, i32, [8 x ptr], ptr, i32, ptr, i32, i32, i32, i32, i32, i32, i32, i64, ptr, i32, ptr, ptr, i64, i64, i64, i64, ptr, %struct.AVChannelLayout, i64 }

; Function Attrs: nounwind uwtable
define internal i32 @filter_frame(ptr noundef %0, ptr noundef %1) #0 {
  %3 = alloca ptr, align 8
  %4 = alloca ptr, align 8
  %5 = alloca ptr, align 8
  %6 = alloca ptr, align 8
  store ptr %0, ptr %3, align 8, !tbaa !36
  store ptr %1, ptr %4, align 8, !tbaa !38
  call void @llvm.lifetime.start.p0(i64 8, ptr %5) #4
  %7 = load ptr, ptr %3, align 8, !tbaa !36
  %8 = getelementptr inbounds nuw %struct.AVFilterLink, ptr %7, i32 0, i32 2
  %9 = load ptr, ptr %8, align 8, !tbaa !40
  store ptr %9, ptr %5, align 8, !tbaa !4
  call void @llvm.lifetime.start.p0(i64 8, ptr %6) #4
  %10 = load ptr, ptr %5, align 8, !tbaa !4
  %11 = getelementptr inbounds nuw %struct.AVFilterContext, ptr %10, i32 0, i32 9
  %12 = load ptr, ptr %11, align 8, !tbaa !12
  store ptr %12, ptr %6, align 8, !tbaa !24
  %13 = load ptr, ptr %6, align 8, !tbaa !24
  %14 = getelementptr inbounds nuw %struct.SetParamsContext, ptr %13, i32 0, i32 1
  %15 = load i32, ptr %14, align 8, !tbaa !32
  %16 = icmp eq i32 %15, 2
  br i1 %16, label %17, label %22

17:                                               ; preds = %2
  %18 = load ptr, ptr %4, align 8, !tbaa !38
  %19 = getelementptr inbounds nuw %struct.AVFrame, ptr %18, i32 0, i32 21
  %20 = load i32, ptr %19, align 4, !tbaa !48
  %21 = and i32 %20, -9
  store i32 %21, ptr %19, align 4, !tbaa !48
  br label %48

22:                                               ; preds = %2
  %23 = load ptr, ptr %6, align 8, !tbaa !24
  %24 = getelementptr inbounds nuw %struct.SetParamsContext, ptr %23, i32 0, i32 1
  %25 = load i32, ptr %24, align 8, !tbaa !32
  %26 = icmp ne i32 %25, -1
  br i1 %26, label %27, label %47

27:                                               ; preds = %22
  %28 = load ptr, ptr %4, align 8, !tbaa !38
  %29 = getelementptr inbounds nuw %struct.AVFrame, ptr %28, i32 0, i32 21
  %30 = load i32, ptr %29, align 4, !tbaa !48
  %31 = or i32 %30, 8
  store i32 %31, ptr %29, align 4, !tbaa !48
  %32 = load ptr, ptr %6, align 8, !tbaa !24
  %33 = getelementptr inbounds nuw %struct.SetParamsContext, ptr %32, i32 0, i32 1
  %34 = load i32, ptr %33, align 8, !tbaa !32
  %35 = icmp ne i32 %34, 0
  br i1 %35, label %36, label %41

36:                                               ; preds = %27
  %37 = load ptr, ptr %4, align 8, !tbaa !38
  %38 = getelementptr inbounds nuw %struct.AVFrame, ptr %37, i32 0, i32 21
  %39 = load i32, ptr %38, align 4, !tbaa !48
  %40 = or i32 %39, 16
  store i32 %40, ptr %38, align 4, !tbaa !48
  br label %46

41:                                               ; preds = %27
  %42 = load ptr, ptr %4, align 8, !tbaa !38
  %43 = getelementptr inbounds nuw %struct.AVFrame, ptr %42, i32 0, i32 21
  %44 = load i32, ptr %43, align 4, !tbaa !48
  %45 = and i32 %44, -17
  store i32 %45, ptr %43, align 4, !tbaa !48
  br label %46

46:                                               ; preds = %41, %36
  br label %47

47:                                               ; preds = %46, %22
  br label %48

48:                                               ; preds = %47, %17
  %49 = load ptr, ptr %6, align 8, !tbaa !24
  %50 = getelementptr inbounds nuw %struct.SetParamsContext, ptr %49, i32 0, i32 2
  %51 = load i32, ptr %50, align 4, !tbaa !31
  %52 = icmp sge i32 %51, 0
  br i1 %52, label %53, label %59

53:                                               ; preds = %48
  %54 = load ptr, ptr %6, align 8, !tbaa !24
  %55 = getelementptr inbounds nuw %struct.SetParamsContext, ptr %54, i32 0, i32 2
  %56 = load i32, ptr %55, align 4, !tbaa !31
  %57 = load ptr, ptr %4, align 8, !tbaa !38
  %58 = getelementptr inbounds nuw %struct.AVFrame, ptr %57, i32 0, i32 22
  store i32 %56, ptr %58, align 8, !tbaa !54
  br label %59

59:                                               ; preds = %53, %48
  %60 = load ptr, ptr %6, align 8, !tbaa !24
  %61 = getelementptr inbounds nuw %struct.SetParamsContext, ptr %60, i32 0, i32 3
  %62 = load i32, ptr %61, align 8, !tbaa !33
  %63 = icmp sge i32 %62, 0
  br i1 %63, label %64, label %70

64:                                               ; preds = %59
  %65 = load ptr, ptr %6, align 8, !tbaa !24
  %66 = getelementptr inbounds nuw %struct.SetParamsContext, ptr %65, i32 0, i32 3
  %67 = load i32, ptr %66, align 8, !tbaa !33
  %68 = load ptr, ptr %4, align 8, !tbaa !38
  %69 = getelementptr inbounds nuw %struct.AVFrame, ptr %68, i32 0, i32 23
  store i32 %67, ptr %69, align 4, !tbaa !55
  br label %70

70:                                               ; preds = %64, %59
  %71 = load ptr, ptr %6, align 8, !tbaa !24
  %72 = getelementptr inbounds nuw %struct.SetParamsContext, ptr %71, i32 0, i32 4
  %73 = load i32, ptr %72, align 4, !tbaa !34
  %74 = icmp sge i32 %73, 0
  br i1 %74, label %75, label %81

75:                                               ; preds = %70
  %76 = load ptr, ptr %6, align 8, !tbaa !24
  %77 = getelementptr inbounds nuw %struct.SetParamsContext, ptr %76, i32 0, i32 4
  %78 = load i32, ptr %77, align 4, !tbaa !34
  %79 = load ptr, ptr %4, align 8, !tbaa !38
  %80 = getelementptr inbounds nuw %struct.AVFrame, ptr %79, i32 0, i32 24
  store i32 %78, ptr %80, align 8, !tbaa !56
  br label %81

81:                                               ; preds = %75, %70
  %82 = load ptr, ptr %6, align 8, !tbaa !24
  %83 = getelementptr inbounds nuw %struct.SetParamsContext, ptr %82, i32 0, i32 5
  %84 = load i32, ptr %83, align 8, !tbaa !26
  %85 = icmp sge i32 %84, 0
  br i1 %85, label %86, label %92

86:                                               ; preds = %81
  %87 = load ptr, ptr %6, align 8, !tbaa !24
  %88 = getelementptr inbounds nuw %struct.SetParamsContext, ptr %87, i32 0, i32 5
  %89 = load i32, ptr %88, align 8, !tbaa !26
  %90 = load ptr, ptr %4, align 8, !tbaa !38
  %91 = getelementptr inbounds nuw %struct.AVFrame, ptr %90, i32 0, i32 25
  store i32 %89, ptr %91, align 4, !tbaa !57
  br label %92

92:                                               ; preds = %86, %81
  %93 = load ptr, ptr %6, align 8, !tbaa !24
  %94 = getelementptr inbounds nuw %struct.SetParamsContext, ptr %93, i32 0, i32 6
  %95 = load i32, ptr %94, align 4, !tbaa !35
  %96 = icmp sge i32 %95, 0
  br i1 %96, label %97, label %103

97:                                               ; preds = %92
  %98 = load ptr, ptr %6, align 8, !tbaa !24
  %99 = getelementptr inbounds nuw %struct.SetParamsContext, ptr %98, i32 0, i32 6
  %100 = load i32, ptr %99, align 4, !tbaa !35
  %101 = load ptr, ptr %4, align 8, !tbaa !38
  %102 = getelementptr inbounds nuw %struct.AVFrame, ptr %101, i32 0, i32 26
  store i32 %100, ptr %102, align 8, !tbaa !58
  br label %103

103:                                              ; preds = %97, %92
  %104 = load ptr, ptr %5, align 8, !tbaa !4
  %105 = getelementptr inbounds nuw %struct.AVFilterContext, ptr %104, i32 0, i32 7
  %106 = load ptr, ptr %105, align 8, !tbaa !59
  %107 = getelementptr inbounds ptr, ptr %106, i64 0
  %108 = load ptr, ptr %107, align 8, !tbaa !36
  %109 = load ptr, ptr %4, align 8, !tbaa !38
  %110 = call i32 @ff_filter_frame(ptr noundef %108, ptr noundef %109)
  call void @llvm.lifetime.end.p0(i64 8, ptr %6) #4
  call void @llvm.lifetime.end.p0(i64 8, ptr %5) #4
  ret i32 %110
}