; Function Attrs: nounwind uwtable
define internal i32 @filter_frame(ptr noundef readonly captures(none) %0, ptr noundef %1) #0 {
  %3 = getelementptr inbounds nuw i8, ptr %0, i64 16
  %4 = load ptr, ptr %3, align 8, !tbaa !26
  %5 = getelementptr inbounds nuw i8, ptr %4, i64 72
  %6 = load ptr, ptr %5, align 8, !tbaa !4
  %7 = getelementptr inbounds nuw i8, ptr %6, i64 8
  %8 = load i32, ptr %7, align 8, !tbaa !25
  switch i32 %8, label %13 [
    i32 2, label %9
    i32 -1, label %21
  ]

9:                                                ; preds = %2
  %10 = getelementptr inbounds nuw i8, ptr %1, i64 276
  %11 = load i32, ptr %10, align 4, !tbaa !35
  %12 = and i32 %11, -9
  store i32 %12, ptr %10, align 4, !tbaa !35
  br label %21

13:                                               ; preds = %2
  %14 = getelementptr inbounds nuw i8, ptr %1, i64 276
  %15 = load i32, ptr %14, align 4, !tbaa !35
  %.not31 = icmp eq i32 %8, 0
  br i1 %.not31, label %18, label %16

16:                                               ; preds = %13
  %17 = or i32 %15, 24
  store i32 %17, ptr %14, align 4, !tbaa !35
  br label %21

18:                                               ; preds = %13
  %19 = and i32 %15, -25
  %20 = or disjoint i32 %19, 8
  store i32 %20, ptr %14, align 4, !tbaa !35
  br label %21

21:                                               ; preds = %2, %18, %16, %9
  %22 = getelementptr inbounds nuw i8, ptr %6, i64 12
  %23 = load i32, ptr %22, align 4, !tbaa !24
  %24 = icmp sgt i32 %23, -1
  br i1 %24, label %25, label %27

25:                                               ; preds = %21
  %26 = getelementptr inbounds nuw i8, ptr %1, i64 280
  store i32 %23, ptr %26, align 8, !tbaa !41
  br label %27

27:                                               ; preds = %25, %21
  %28 = getelementptr inbounds nuw i8, ptr %6, i64 16
  %29 = load i32, ptr %28, align 8, !tbaa !42
  %30 = icmp sgt i32 %29, -1
  br i1 %30, label %31, label %33

31:                                               ; preds = %27
  %32 = getelementptr inbounds nuw i8, ptr %1, i64 284
  store i32 %29, ptr %32, align 4, !tbaa !43
  br label %33

33:                                               ; preds = %31, %27
  %34 = getelementptr inbounds nuw i8, ptr %6, i64 20
  %35 = load i32, ptr %34, align 4, !tbaa !44
  %36 = icmp sgt i32 %35, -1
  br i1 %36, label %37, label %39

37:                                               ; preds = %33
  %38 = getelementptr inbounds nuw i8, ptr %1, i64 288
  store i32 %35, ptr %38, align 8, !tbaa !45
  br label %39

39:                                               ; preds = %37, %33
  %40 = getelementptr inbounds nuw i8, ptr %6, i64 24
  %41 = load i32, ptr %40, align 8, !tbaa !20
  %42 = icmp sgt i32 %41, -1
  br i1 %42, label %43, label %45

43:                                               ; preds = %39
  %44 = getelementptr inbounds nuw i8, ptr %1, i64 292
  store i32 %41, ptr %44, align 4, !tbaa !46
  br label %45

45:                                               ; preds = %43, %39
  %46 = getelementptr inbounds nuw i8, ptr %6, i64 28
  %47 = load i32, ptr %46, align 4, !tbaa !47
  %48 = icmp sgt i32 %47, -1
  br i1 %48, label %49, label %51

49:                                               ; preds = %45
  %50 = getelementptr inbounds nuw i8, ptr %1, i64 296
  store i32 %47, ptr %50, align 8, !tbaa !48
  br label %51

51:                                               ; preds = %49, %45
  %52 = getelementptr inbounds nuw i8, ptr %4, i64 56
  %53 = load ptr, ptr %52, align 8, !tbaa !49
  %54 = load ptr, ptr %53, align 8, !tbaa !50
  %55 = tail call i32 @ff_filter_frame(ptr noundef %54, ptr noundef %1) #4
  ret i32 %55
}